; Function Attrs: nounwind uwtable
define dso_local range(i32 -1, 1) i32 @commit_lock_file(ptr noundef %0) local_unnamed_addr #0 {
  %2 = tail call ptr @get_locked_file_path(ptr noundef %0)
  %3 = tail call i32 @rename_tempfile(ptr noundef %0, ptr noundef %2) #11
  %.not = icmp eq i32 %3, 0
  br i1 %.not, label %7, label %4

4:                                                ; preds = %1
  %5 = tail call ptr @__errno_location() #13
  %6 = load i32, ptr %5, align 4, !tbaa !4
  tail call void @free(ptr noundef %2) #11
  store i32 %6, ptr %5, align 4, !tbaa !4
  br label %8

7:                                                ; preds = %1
  tail call void @free(ptr noundef %2) #11
  br label %8

8:                                                ; preds = %7, %4
  %.0 = phi i32 [ -1, %4 ], [ 0, %7 ]
  ret i32 %.0
}